Certificate:
    Data:
        Version: 3 (0x2)
        Serial Number:
            05:21:83:52:79:25:82:57:03:52
    Signature Algorithm: sha512WithRSAEncryption
        Issuer: C=GB, OU=https://www.park-watt.co.uk, CN=Park-Watt ERCA RSA 4096 1903
        Validity
            Not Before: Feb 17 11:14:45 2020 GMT
            Not After : Feb 16 11:14:45 2021 GMT
        Subject: CN=e2guiardian
        Subject Public Key Info:
            Public Key Algorithm: rsaEncryption
                Public-Key: (4096 bit)
                Modulus:
                    00:c6:2d:0f:73:9a:34:bf:d2:54:a5:60:54:39:98:
                    fc:5c:c9:65:ed:00:a5:62:35:73:7a:aa:90:ff:e3:
                    b0:95:fc:21:01:97:7b:44:fb:bf:44:c9:0d:d8:dc:
                    83:62:e1:32:41:93:34:cb:2d:9a:55:f6:de:32:5d:
                    66:53:13:94:0d:33:d3:b2:6f:3c:9f:22:7c:5d:d2:
                    61:c2:62:c5:1a:70:47:fc:0b:24:1a:df:2d:02:04:
                    4c:26:c8:6a:83:e7:f5:db:bb:b1:fd:d9:53:3c:1d:
                    9b:81:ce:1c:33:ab:fc:1f:ee:1b:9c:4b:37:6f:78:
                    ea:fc:14:c1:e3:d7:4e:f9:3e:1e:eb:53:20:92:63:
                    38:55:d1:02:dc:21:bd:db:79:56:95:f8:b3:ea:34:
                    c1:7a:dc:7a:9f:ad:23:c2:8f:c8:1e:90:d0:8c:89:
                    3d:64:bd:69:a3:a4:19:8e:1a:99:bf:0b:b0:10:3d:
                    a7:9e:b4:99:91:05:d3:46:eb:c2:90:00:2a:3a:71:
                    f3:e2:6b:2a:52:1c:92:2e:ed:e0:d8:4a:4d:1c:88:
                    76:6d:fe:3e:71:16:71:4f:34:62:03:60:ae:df:04:
                    58:13:9f:3c:31:37:29:f7:99:43:53:cf:50:21:97:
                    10:2c:61:11:be:26:b8:c4:96:89:54:40:c6:b7:50:
                    db:02:f9:a7:cd:aa:2a:18:8a:c8:25:1d:8e:3f:ef:
                    9b:89:bb:2d:94:2a:49:1a:27:5e:a9:51:77:d7:d9:
                    ea:cc:57:4a:83:d2:a3:de:0e:ec:ec:2e:73:d3:83:
                    30:d8:14:c4:ad:5a:c7:af:d1:0c:f0:13:18:ce:83:
                    ee:bd:4f:f7:c5:b6:85:3a:93:9e:41:0f:0d:e1:d2:
                    a6:ac:5f:a1:6b:7c:82:1a:0a:4b:c7:99:2b:30:13:
                    79:1b:6e:f7:52:7e:03:36:aa:9b:42:b6:8f:06:14:
                    bc:3e:a8:94:be:b6:93:f9:f8:76:69:e7:a4:c8:da:
                    04:50:71:7d:ea:fd:c0:2f:33:1b:b6:62:f2:3e:23:
                    06:6e:34:ec:11:a7:dd:d1:4b:ea:fa:0a:7c:60:6d:
                    47:56:c2:aa:08:7c:90:27:1c:d9:ed:6b:99:3a:7d:
                    86:c4:1f:f5:6f:dd:1c:10:41:0a:44:32:01:54:3a:
                    2a:62:ce:10:d1:5b:56:67:43:b5:3a:61:50:4c:0f:
                    28:35:76:55:f6:ee:49:cb:1c:09:91:bb:77:45:fb:
                    9c:ee:0c:d1:0b:8e:75:c5:ba:c6:44:55:24:ed:04:
                    16:0a:fa:bb:3b:4e:52:e8:40:66:65:ab:90:42:52:
                    01:44:1b:55:34:91:83:af:78:07:b4:cf:4b:e6:3b:
                    43:b4:3f
                Exponent: 65537 (0x10001)
        X509v3 extensions:
            X509v3 Key Usage: critical
                Digital Signature, Certificate Sign, CRL Sign
            X509v3 Extended Key Usage: 
                TLS Web Server Authentication, TLS Web Client Authentication
            X509v3 Basic Constraints: critical
                CA:TRUE, pathlen:0
            X509v3 Subject Key Identifier: 
                C7:8B:9F:5C:31:23:DA:A7:8D:D7:FD:39:B2:4A:71:34:E8:5A:81:81
            X509v3 Authority Key Identifier: 
                keyid:DD:A3:E6:D3:05:A0:13:95:47:66:8F:1B:49:B9:F9:4C:0A:0F:C6:5F

            X509v3 CRL Distribution Points: 

                Full Name:
                  URI:http://pki.park-watt.co.uk/PARK_WATT_ROOT.crl

    Signature Algorithm: sha512WithRSAEncryption
         72:d8:b6:2b:8d:f8:bd:e0:19:00:81:00:86:74:cd:74:b5:46:
         10:ae:b0:8b:a1:48:e6:a1:c7:a7:7d:9e:3c:e7:83:f6:0d:93:
         8f:3d:37:36:4d:03:7d:26:12:4e:99:ba:65:6b:10:07:ee:c4:
         06:a4:fa:17:a0:4c:34:35:c8:89:12:5b:0b:2d:ed:64:d7:52:
         70:52:2f:6c:85:a3:48:a7:50:81:47:07:55:a8:d4:c6:d2:57:
         d9:4f:46:b1:a5:88:ab:44:62:75:a1:5f:8b:55:78:67:64:cb:
         6e:98:53:89:fc:f0:2d:44:fa:94:c2:e2:44:ee:7d:5c:c3:73:
         03:48:98:b9:58:d7:c9:7b:b5:08:fc:1a:29:51:27:98:b1:59:
         0e:d3:1d:18:51:9e:d4:2e:04:7e:e2:1c:5f:b0:79:e9:6d:1e:
         4d:3d:f8:72:bf:73:5d:c3:f5:64:41:ad:2e:d4:ad:9f:29:5d:
         f1:51:07:84:30:97:cc:e1:e5:17:24:c8:87:3e:6d:0a:a8:ad:
         63:fe:75:40:12:dd:b4:9e:03:c3:73:2b:33:e6:f7:50:57:7e:
         1d:37:ef:72:19:90:1f:6b:b7:64:48:4e:0d:1b:82:0c:1e:e1:
         ba:c8:1c:fd:b2:19:43:4f:eb:83:94:00:d5:a0:60:0b:67:9c:
         6d:e7:a9:61:ba:77:e3:67:c4:6e:ee:8a:74:11:09:36:6a:10:
         f9:b1:d1:21:35:06:00:70:b2:aa:c6:15:a6:08:37:96:3e:66:
         af:60:86:b3:53:67:1a:af:35:b8:f2:e3:5d:ab:3c:c8:78:18:
         b1:18:39:85:37:c6:a9:bc:59:55:db:e4:b5:f8:7d:37:8e:15:
         d8:15:95:e4:c5:39:cc:93:9d:9c:f9:f1:5a:eb:1b:dd:62:48:
         8a:0c:7a:f6:d3:b3:6a:9f:6f:14:9d:13:6a:3f:6a:bd:74:62:
         22:f6:dd:c1:c7:e5:08:8a:e3:8e:eb:8e:3a:6a:2d:4e:ab:01:
         d0:ee:fd:9e:d9:dc:c8:44:4b:76:9d:c9:af:5b:3e:bf:6c:b1:
         bf:82:07:ee:8b:35:e7:32:49:4d:db:11:c4:79:8f:a5:ef:36:
         4a:05:19:34:53:b3:39:62:de:81:e6:0f:fe:aa:50:25:03:3d:
         6c:58:9b:50:14:b4:b4:f1:8c:b8:d4:95:96:87:15:e1:78:cb:
         8a:52:e5:3d:45:92:17:e3:ee:92:de:94:c8:69:2c:87:fe:8b:
         54:70:0a:42:a4:50:1b:f3:66:a4:b1:79:d5:58:62:b1:f3:b0:
         42:55:d5:05:36:13:1a:06:27:f1:fd:91:06:e8:8d:cc:c9:fd:
         50:51:eb:4a:7c:1f:13:db
-----BEGIN CERTIFICATE-----
MIIFuzCCA6OgAwIBAgIKBSGDUnklglcDUjANBgkqhkiG9w0BAQ0FADBaMQswCQYD
VQQGEwJHQjEkMCIGA1UECwwbaHR0cHM6Ly93d3cucGFyay13YXR0LmNvLnVrMSUw
IwYDVQQDDBxQYXJrLVdhdHQgRVJDQSBSU0EgNDA5NiAxOTAzMB4XDTIwMDIxNzEx
MTQ0NVoXDTIxMDIxNjExMTQ0NVowFjEUMBIGA1UEAwwLZTJndWlhcmRpYW4wggIi
MA0GCSqGSIb3DQEBAQUAA4ICDwAwggIKAoICAQDGLQ9zmjS/0lSlYFQ5mPxcyWXt
AKViNXN6qpD/47CV/CEBl3tE+79EyQ3Y3INi4TJBkzTLLZpV9t4yXWZTE5QNM9Oy
bzyfInxd0mHCYsUacEf8CyQa3y0CBEwmyGqD5/Xbu7H92VM8HZuBzhwzq/wf7huc
SzdveOr8FMHj1075Ph7rUyCSYzhV0QLcIb3beVaV+LPqNMF63HqfrSPCj8gekNCM
iT1kvWmjpBmOGpm/C7AQPaeetJmRBdNG68KQACo6cfPiaypSHJIu7eDYSk0ciHZt
/j5xFnFPNGIDYK7fBFgTnzwxNyn3mUNTz1AhlxAsYRG+JrjElolUQMa3UNsC+afN
qioYisglHY4/75uJuy2UKkkaJ16pUXfX2erMV0qD0qPeDuzsLnPTgzDYFMStWsev
0QzwExjOg+69T/fFtoU6k55BDw3h0qasX6FrfIIaCkvHmSswE3kbbvdSfgM2qptC
to8GFLw+qJS+tpP5+HZp56TI2gRQcX3q/cAvMxu2YvI+IwZuNOwRp93RS+r6Cnxg
bUdWwqoIfJAnHNnta5k6fYbEH/Vv3RwQQQpEMgFUOipizhDRW1ZnQ7U6YVBMDyg1
dlX27knLHAmRu3dF+5zuDNELjnXFusZEVSTtBBYK+rs7TlLoQGZlq5BCUgFEG1U0
kYOveAe0z0vmO0O0PwIDAQABo4HGMIHDMA4GA1UdDwEB/wQEAwIBhjAdBgNVHSUE
FjAUBggrBgEFBQcDAQYIKwYBBQUHAwIwEgYDVR0TAQH/BAgwBgEB/wIBADAdBgNV
HQ4EFgQUx4ufXDEj2qeN1/05skpxNOhagYEwHwYDVR0jBBgwFoAU3aPm0wWgE5VH
Zo8bSbn5TAoPxl8wPgYDVR0fBDcwNTAzoDGgL4YtaHR0cDovL3BraS5wYXJrLXdh
dHQuY28udWsvUEFSS19XQVRUX1JPT1QuY3JsMA0GCSqGSIb3DQEBDQUAA4ICAQBy
2LYrjfi94BkAgQCGdM10tUYQrrCLoUjmocenfZ4854P2DZOPPTc2TQN9JhJOmbpl
axAH7sQGpPoXoEw0NciJElsLLe1k11JwUi9shaNIp1CBRwdVqNTG0lfZT0axpYir
RGJ1oV+LVXhnZMtumFOJ/PAtRPqUwuJE7n1cw3MDSJi5WNfJe7UI/BopUSeYsVkO
0x0YUZ7ULgR+4hxfsHnpbR5NPfhyv3Ndw/VkQa0u1K2fKV3xUQeEMJfM4eUXJMiH
Pm0KqK1j/nVAEt20ngPDcysz5vdQV34dN+9yGZAfa7dkSE4NG4IMHuG6yBz9shlD
T+uDlADVoGALZ5xt56lhunfjZ8Ru7op0EQk2ahD5sdEhNQYAcLKqxhWmCDeWPmav
YIazU2carzW48uNdqzzIeBixGDmFN8apvFlV2+S1+H03jhXYFZXkxTnMk52c+fFa
6xvdYkiKDHr207Nqn28UnRNqP2q9dGIi9t3Bx+UIiuOO6446ai1OqwHQ7v2e2dzI
REt2ncmvWz6/bLG/ggfuizXnMklN2xHEeY+l7zZKBRk0U7M5Yt6B5g/+qlAlAz1s
WJtQFLS08Yy41JWWhxXheMuKUuU9RZIX4+6S3pTIaSyH/otUcApCpFAb82aksXnV
WGKx87BCVdUFNhMaBifx/ZEG6I3Myf1QUetKfB8T2w==
-----END CERTIFICATE-----
