Certificate:
    Data:
        Version: 3 (0x2)
        Serial Number:
            75:78:69:83:38:16:62:29:08
    Signature Algorithm: sha512WithRSAEncryption
        Issuer: C=GB, OU=https://www.park-watt.co.uk, CN=Park-Watt ERCA RSA 4096 1903
        Validity
            Not Before: Mar 20 19:54:40 2019 GMT
            Not After : Mar 19 19:54:40 2020 GMT
        Subject: C=GB, ST=State, O=Org, OU=Orgu, CN=Common/emailAddress=Email
        Subject Public Key Info:
            Public Key Algorithm: rsaEncryption
                Public-Key: (2048 bit)
                Modulus:
                    00:aa:fa:57:f2:e7:b9:fb:a1:b7:ce:b2:fd:06:f7:
                    c5:dc:85:07:79:86:5e:94:58:ae:1b:28:5d:c2:66:
                    12:96:f5:54:a1:0f:4f:bb:68:31:a4:1b:ea:08:f2:
                    5f:81:51:e7:d9:f1:5d:2e:14:1a:83:36:0e:00:fd:
                    fb:53:41:f2:d7:22:5a:ba:bf:a4:fa:91:bf:89:1b:
                    67:ab:3b:5a:63:cc:e9:9a:f3:fc:f4:55:75:3a:2f:
                    23:7a:89:77:60:80:bc:04:63:15:77:6e:a5:dd:79:
                    07:6c:71:b7:76:23:46:43:a0:86:d5:a6:34:c6:9b:
                    b9:4f:66:19:50:cd:03:8a:7c:12:c6:6d:62:24:ae:
                    3a:d3:b0:0c:c4:55:10:6a:1a:ad:0b:01:cf:87:2e:
                    0c:fe:66:5d:24:20:ac:8f:84:e6:50:22:e7:e3:40:
                    96:21:23:2a:1c:1a:c6:ad:aa:bc:c3:2b:9c:eb:74:
                    37:13:37:c1:98:99:9d:ed:4f:02:1c:30:b0:2f:22:
                    b9:67:d8:78:7a:b0:97:21:89:ca:f0:0d:6b:9c:e7:
                    5d:00:8b:87:53:7c:82:2b:35:5e:6d:55:b1:a6:80:
                    28:84:ff:4f:4a:db:f4:23:de:a7:7f:7d:83:6d:f9:
                    7c:a6:35:be:b2:9e:92:63:6d:4b:8a:2b:0c:22:6c:
                    76:9f
                Exponent: 65537 (0x10001)
        X509v3 extensions:
            X509v3 Key Usage: critical
                Digital Signature, Certificate Sign, CRL Sign
            X509v3 Extended Key Usage: 
                TLS Web Server Authentication, TLS Web Client Authentication
            X509v3 Basic Constraints: critical
                CA:TRUE, pathlen:0
            X509v3 Subject Key Identifier: 
                B1:C6:59:E4:91:98:99:7E:CE:30:96:31:78:EC:5B:C8:74:8E:1D:8F
            X509v3 Authority Key Identifier: 
                keyid:DD:A3:E6:D3:05:A0:13:95:47:66:8F:1B:49:B9:F9:4C:0A:0F:C6:5F

            X509v3 CRL Distribution Points: 

                Full Name:
                  URI:http://pki.park-watt.co.uk/PARK_WATT_ROOT.crl

    Signature Algorithm: sha512WithRSAEncryption
         68:a4:eb:e9:dc:ef:ce:08:ef:ae:c8:b2:a9:6f:9e:0f:b9:12:
         14:a4:52:aa:54:2d:32:00:d6:bc:42:fc:2c:0a:1b:1f:75:62:
         35:08:83:c8:fe:19:2e:cf:dc:18:16:f1:92:9c:e5:f4:46:a7:
         6d:e4:b5:59:00:bc:9f:4b:91:ca:c6:58:af:1f:23:6f:b4:e5:
         83:89:c2:73:b5:a2:f0:df:4d:f2:99:b0:d9:da:71:1d:b9:f7:
         b4:25:6d:05:71:09:78:ac:24:98:22:8e:65:62:54:64:b4:22:
         ce:9e:31:b0:1d:1f:b1:32:b5:f1:61:8b:ef:94:1a:86:9b:24:
         65:91:cc:7b:c8:7e:c0:47:1e:47:14:30:41:1d:e1:cd:88:94:
         0e:35:56:d8:b6:a3:fb:f4:9f:71:60:b1:6a:82:fb:c7:0e:e5:
         77:42:71:8e:22:d7:a5:e0:a9:7b:47:c5:9e:e0:c3:7b:04:56:
         d7:76:dc:df:67:bf:73:6f:e7:7d:d8:41:5e:82:a3:ec:7f:fa:
         56:8e:80:58:44:e7:86:2f:d5:65:a8:69:3d:e0:61:15:ea:21:
         3b:86:34:9f:6b:aa:19:1c:18:5a:55:e3:d5:d2:73:59:a5:58:
         f3:79:1e:18:0e:56:bc:c6:5a:fa:2a:7d:36:fa:8c:f1:8b:2b:
         27:be:ea:3b:eb:68:30:63:e2:d5:57:7c:91:ce:ea:9a:20:98:
         00:db:1f:54:f2:30:f3:98:4d:c4:b6:e9:8f:50:ea:59:b2:8f:
         ea:f6:81:84:5b:27:f7:62:d5:68:66:df:cc:b4:cc:62:d7:ff:
         aa:3d:f3:d7:08:81:df:12:1a:41:bc:e4:25:7f:3e:22:75:d9:
         16:28:a9:8d:a4:97:d4:75:03:34:64:62:9b:42:b8:7f:f8:02:
         be:7e:e7:89:1d:fe:67:33:45:24:4c:c4:8c:78:7b:2a:f0:79:
         f3:1e:03:75:2a:ec:57:c5:93:1b:de:4e:9c:cd:8c:90:99:b4:
         39:af:1b:b1:31:aa:50:4d:27:13:77:08:e0:c2:fb:d9:11:b4:
         87:a3:89:c5:2a:86:03:cb:04:3f:41:cf:16:fd:a3:fa:d9:1e:
         e9:7a:10:ff:9d:19:ad:a8:6f:d3:96:f5:8a:22:73:21:6c:d9:
         c2:7b:ad:f4:66:ba:c9:cf:64:d0:df:8e:62:c1:9b:88:c4:6c:
         23:ab:18:5e:7b:55:a9:0e:a3:2a:ee:4d:5f:2d:e5:8f:e1:06:
         09:61:f7:ea:a7:97:41:ad:90:04:b8:71:9b:8a:7a:d5:f9:fe:
         a7:2f:de:61:57:8a:c5:f4:8b:7e:77:1e:c4:55:90:88:a1:16:
         c4:c3:ef:79:d4:23:ab:b3
-----BEGIN CERTIFICATE-----
MIIFBTCCAu2gAwIBAgIJdXhpgzgWYikIMA0GCSqGSIb3DQEBDQUAMFoxCzAJBgNV
BAYTAkdCMSQwIgYDVQQLDBtodHRwczovL3d3dy5wYXJrLXdhdHQuY28udWsxJTAj
BgNVBAMMHFBhcmstV2F0dCBFUkNBIFJTQSA0MDk2IDE5MDMwHhcNMTkwMzIwMTk1
NDQwWhcNMjAwMzE5MTk1NDQwWjBhMQswCQYDVQQGEwJHQjEOMAwGA1UECAwFU3Rh
dGUxDDAKBgNVBAoMA09yZzENMAsGA1UECwwET3JndTEPMA0GA1UEAwwGQ29tbW9u
MRQwEgYJKoZIhvcNAQkBFgVFbWFpbDCCASIwDQYJKoZIhvcNAQEBBQADggEPADCC
AQoCggEBAKr6V/Lnufuht86y/Qb3xdyFB3mGXpRYrhsoXcJmEpb1VKEPT7toMaQb
6gjyX4FR59nxXS4UGoM2DgD9+1NB8tciWrq/pPqRv4kbZ6s7WmPM6Zrz/PRVdTov
I3qJd2CAvARjFXdupd15B2xxt3YjRkOghtWmNMabuU9mGVDNA4p8EsZtYiSuOtOw
DMRVEGoarQsBz4cuDP5mXSQgrI+E5lAi5+NAliEjKhwaxq2qvMMrnOt0NxM3wZiZ
ne1PAhwwsC8iuWfYeHqwlyGJyvANa5znXQCLh1N8gis1Xm1VsaaAKIT/T0rb9CPe
p399g235fKY1vrKekmNtS4orDCJsdp8CAwEAAaOBxjCBwzAOBgNVHQ8BAf8EBAMC
AYYwHQYDVR0lBBYwFAYIKwYBBQUHAwEGCCsGAQUFBwMCMBIGA1UdEwEB/wQIMAYB
Af8CAQAwHQYDVR0OBBYEFLHGWeSRmJl+zjCWMXjsW8h0jh2PMB8GA1UdIwQYMBaA
FN2j5tMFoBOVR2aPG0m5+UwKD8ZfMD4GA1UdHwQ3MDUwM6AxoC+GLWh0dHA6Ly9w
a2kucGFyay13YXR0LmNvLnVrL1BBUktfV0FUVF9ST09ULmNybDANBgkqhkiG9w0B
AQ0FAAOCAgEAaKTr6dzvzgjvrsiyqW+eD7kSFKRSqlQtMgDWvEL8LAobH3ViNQiD
yP4ZLs/cGBbxkpzl9EanbeS1WQC8n0uRysZYrx8jb7Tlg4nCc7Wi8N9N8pmw2dpx
Hbn3tCVtBXEJeKwkmCKOZWJUZLQizp4xsB0fsTK18WGL75QahpskZZHMe8h+wEce
RxQwQR3hzYiUDjVW2Laj+/SfcWCxaoL7xw7ld0JxjiLXpeCpe0fFnuDDewRW13bc
32e/c2/nfdhBXoKj7H/6Vo6AWETnhi/VZahpPeBhFeohO4Y0n2uqGRwYWlXj1dJz
WaVY83keGA5WvMZa+ip9NvqM8YsrJ77qO+toMGPi1Vd8kc7qmiCYANsfVPIw85hN
xLbpj1DqWbKP6vaBhFsn92LVaGbfzLTMYtf/qj3z1wiB3xIaQbzkJX8+InXZFiip
jaSX1HUDNGRim0K4f/gCvn7niR3+ZzNFJEzEjHh7KvB58x4DdSrsV8WTG95OnM2M
kJm0Oa8bsTGqUE0nE3cI4ML72RG0h6OJxSqGA8sEP0HPFv2j+tke6XoQ/50Zrahv
05b1iiJzIWzZwnut9Ga6yc9k0N+OYsGbiMRsI6sYXntVqQ6jKu5NXy3lj+EGCWH3
6qeXQa2QBLhxm4p61fn+py/eYVeKxfSLfncexFWQiKEWxMPvedQjq7M=
-----END CERTIFICATE-----
