Certificate:
    Data:
        Version: 3 (0x2)
        Serial Number:
            13:81:68:41:57:07:99:47:28:31
    Signature Algorithm: sha256WithRSAEncryption
        Issuer: C=GB, OU=https://www.park-watt.co.uk, CN=Park-Watt ROOT
        Validity
            Not Before: Jan 20 16:48:21 2019 GMT
            Not After : Jan 19 16:48:21 2024 GMT
        Subject: C=GB, OU=https://www.park-watt.co.uk, CN=Park-Watt RSA Intermediate Home
        Subject Public Key Info:
            Public Key Algorithm: rsaEncryption
                Public-Key: (2048 bit)
                Modulus:
                    00:bb:53:1f:ad:7f:1f:0f:98:f6:d0:fb:30:10:3d:
                    a2:5b:26:82:91:b9:b1:98:26:93:1e:90:1f:e5:c3:
                    ec:1c:3c:e2:a5:3c:97:d8:f6:10:68:00:ad:3c:ed:
                    db:7e:e6:6b:e9:a4:88:ab:61:ef:83:14:44:02:c4:
                    89:b0:52:b8:97:42:91:3f:a8:df:5b:53:99:55:25:
                    3e:ae:9d:18:ca:50:95:33:ef:65:66:1d:e0:21:eb:
                    0f:52:4b:aa:bf:3f:e7:ca:fe:9f:78:bf:0e:7a:38:
                    f0:33:c9:aa:58:94:5f:e2:c3:7e:1d:de:b9:5a:83:
                    ba:29:4e:37:80:4f:35:a5:49:6d:79:bc:e5:f0:c1:
                    07:02:b0:a2:7c:9a:aa:1b:e9:7f:45:6a:db:8e:d3:
                    b7:b4:23:ac:70:cd:d9:f8:2b:88:64:5f:a2:de:0b:
                    a5:09:8f:0c:22:5a:b4:d1:87:41:c7:75:4e:b9:48:
                    29:20:b2:f9:15:7c:d5:72:45:06:7d:27:6e:7f:34:
                    43:8e:7b:c5:b6:30:24:5a:b2:74:60:f4:a2:5a:b9:
                    46:44:29:6b:10:e3:df:10:6f:c9:a7:8b:ba:f9:fa:
                    44:3b:03:69:c3:28:c9:11:73:c8:f2:d6:95:85:b2:
                    16:d3:89:37:ca:c3:c8:82:cd:d0:9f:56:c8:12:f8:
                    22:c7
                Exponent: 65537 (0x10001)
        X509v3 extensions:
            X509v3 Key Usage: critical
                Digital Signature, Certificate Sign, CRL Sign
            X509v3 Extended Key Usage: 
                TLS Web Server Authentication, TLS Web Client Authentication
            X509v3 Basic Constraints: critical
                CA:TRUE, pathlen:0
            X509v3 Subject Key Identifier: 
                51:54:4C:85:76:00:91:E7:AD:C5:4F:18:D1:9E:9F:1C:FB:75:90:65
            X509v3 Authority Key Identifier: 
                keyid:7D:2C:01:3E:D2:F8:6A:D7:71:74:32:80:16:CC:D1:DB:F3:6B:F1:CD

            X509v3 CRL Distribution Points: 

                Full Name:
                  URI:http://pki.park-watt.co.uk/PARK_WATT_ROOT.crl

    Signature Algorithm: sha256WithRSAEncryption
         2e:a6:ae:33:84:3b:0b:74:2a:6e:60:05:cf:cf:71:ce:d9:67:
         55:e9:6d:b0:c7:5b:7d:60:40:88:c3:56:1f:48:60:0f:8d:f5:
         01:aa:c1:12:23:04:b9:b1:f5:75:51:36:52:93:db:14:6c:fc:
         46:95:55:a2:37:8e:d4:53:0f:f2:2e:40:e4:4c:25:53:90:23:
         99:ca:8d:74:fa:c9:54:54:52:89:97:77:0e:6c:b6:1d:76:8b:
         96:fd:a7:c4:19:de:d9:0c:52:53:c0:35:ac:b3:47:79:91:35:
         34:59:f5:6f:ba:ec:7e:7a:87:48:32:1a:0c:a9:34:e1:16:ce:
         7c:27:57:e9:76:2a:53:87:2f:9f:30:96:79:ac:2e:44:a9:d1:
         a5:4d:f8:70:0a:c7:9f:39:9b:30:9a:8f:de:1a:90:ec:d9:4c:
         92:fe:88:fa:dc:6e:30:85:02:e8:42:3e:cb:0c:8c:85:8c:98:
         b6:04:34:a4:bf:de:98:da:ac:b2:76:df:f6:26:8e:a7:28:f9:
         46:9d:27:7c:ab:b2:66:63:79:8e:9d:bb:40:0d:0d:f3:3f:ed:
         84:36:70:d4:46:ba:1b:46:8f:00:c6:15:93:49:04:01:d1:97:
         8a:f1:56:70:f2:5f:81:ff:08:d3:6d:e4:d7:ba:dd:f8:f0:4f:
         e9:ae:a0:f4
-----BEGIN CERTIFICATE-----
MIID9DCCAtygAwIBAgIKE4FoQVcHmUcoMTANBgkqhkiG9w0BAQsFADBMMQswCQYD
VQQGEwJHQjEkMCIGA1UECwwbaHR0cHM6Ly93d3cucGFyay13YXR0LmNvLnVrMRcw
FQYDVQQDDA5QYXJrLVdhdHQgUk9PVDAeFw0xOTAxMjAxNjQ4MjFaFw0yNDAxMTkx
NjQ4MjFaMF0xCzAJBgNVBAYTAkdCMSQwIgYDVQQLDBtodHRwczovL3d3dy5wYXJr
LXdhdHQuY28udWsxKDAmBgNVBAMMH1BhcmstV2F0dCBSU0EgSW50ZXJtZWRpYXRl
IEhvbWUwggEiMA0GCSqGSIb3DQEBAQUAA4IBDwAwggEKAoIBAQC7Ux+tfx8PmPbQ
+zAQPaJbJoKRubGYJpMekB/lw+wcPOKlPJfY9hBoAK087dt+5mvppIirYe+DFEQC
xImwUriXQpE/qN9bU5lVJT6unRjKUJUz72VmHeAh6w9SS6q/P+fK/p94vw56OPAz
yapYlF/iw34d3rlag7opTjeATzWlSW15vOXwwQcCsKJ8mqob6X9FatuO07e0I6xw
zdn4K4hkX6LeC6UJjwwiWrTRh0HHdU65SCkgsvkVfNVyRQZ9J25/NEOOe8W2MCRa
snRg9KJauUZEKWsQ498Qb8mni7r5+kQ7A2nDKMkRc8jy1pWFshbTiTfKw8iCzdCf
VsgS+CLHAgMBAAGjgcYwgcMwDgYDVR0PAQH/BAQDAgGGMB0GA1UdJQQWMBQGCCsG
AQUFBwMBBggrBgEFBQcDAjASBgNVHRMBAf8ECDAGAQH/AgEAMB0GA1UdDgQWBBRR
VEyFdgCR563FTxjRnp8c+3WQZTAfBgNVHSMEGDAWgBR9LAE+0vhq13F0MoAWzNHb
82vxzTA+BgNVHR8ENzA1MDOgMaAvhi1odHRwOi8vcGtpLnBhcmstd2F0dC5jby51
ay9QQVJLX1dBVFRfUk9PVC5jcmwwDQYJKoZIhvcNAQELBQADggEBAC6mrjOEOwt0
Km5gBc/Pcc7ZZ1XpbbDHW31gQIjDVh9IYA+N9QGqwRIjBLmx9XVRNlKT2xRs/EaV
VaI3jtRTD/IuQORMJVOQI5nKjXT6yVRUUomXdw5sth12i5b9p8QZ3tkMUlPANayz
R3mRNTRZ9W+67H56h0gyGgypNOEWznwnV+l2KlOHL58wlnmsLkSp0aVN+HAKx585
mzCaj94akOzZTJL+iPrcbjCFAuhCPssMjIWMmLYENKS/3pjarLJ23/Ymjqco+Uad
J3yrsmZjeY6du0ANDfM/7YQ2cNRGuhtGjwDGFZNJBAHRl4rxVnDyX4H/CNNt5Ne6
3fjwT+muoPQ=
-----END CERTIFICATE-----
